; Function Attrs: mustprogress nofree norecurse nosync nounwind willreturn memory(argmem: readwrite) uwtable
define void @_ZNK32pxrInternal_v0_24__pxrReserved__10GfMatrix2d10GetInverseEPdd(ptr dead_on_unwind noalias writable writeonly sret(%"class.pxrInternal_v0_24__pxrReserved__::GfMatrix2d") align 8 captures(none) initializes((0, 32)) %0, ptr noundef nonnull readonly align 8 captures(none) dereferenceable(32) %1, ptr noundef writeonly %2, double noundef %3) local_unnamed_addr #2 align 2 {
  %5 = load double, ptr %1, align 8
  %6 = getelementptr inbounds nuw i8, ptr %1, i64 16
  %7 = getelementptr inbounds nuw i8, ptr %1, i64 24
  %8 = load double, ptr %7, align 8
  %9 = getelementptr inbounds nuw i8, ptr %1, i64 8
  %10 = load double, ptr %9, align 8
  %11 = load double, ptr %6, align 8
  %12 = fneg double %11
  %13 = fmul double %10, %12
  %14 = tail call noundef double @llvm.fmuladd.f64(double %5, double %8, double %13)
  %.not = icmp eq ptr %2, null
  br i1 %.not, label %16, label %15

15:                                               ; preds = %4
  store double %14, ptr %2, align 8
  br label %16

16:                                               ; preds = %15, %4
  %17 = tail call noundef double @llvm.fabs.f64(double %14)
  %18 = fcmp ogt double %17, %3
  br i1 %18, label %19, label %32

19:                                               ; preds = %16
  %20 = fdiv double 1.000000e+00, %14
  %21 = load double, ptr %7, align 8
  %22 = fmul double %20, %21
  %23 = load double, ptr %9, align 8
  %24 = fneg double %20
  %25 = fmul double %23, %24
  %26 = getelementptr inbounds nuw i8, ptr %0, i64 8
  store double %25, ptr %26, align 8
  %27 = load double, ptr %6, align 8
  %28 = fmul double %27, %24
  %29 = getelementptr inbounds nuw i8, ptr %0, i64 16
  store double %28, ptr %29, align 8
  %30 = load double, ptr %1, align 8
  %31 = fmul double %20, %30
  br label %34

32:                                               ; preds = %16
  %33 = getelementptr inbounds nuw i8, ptr %0, i64 8
  tail call void @llvm.memset.p0.i64(ptr noundef nonnull align 8 dereferenceable(16) %33, i8 0, i64 16, i1 false)
  br label %34

34:                                               ; preds = %32, %19
  %.sink11 = phi double [ %22, %19 ], [ 0x47EFFFFFE0000000, %32 ]
  %.sink = phi double [ %31, %19 ], [ 0x47EFFFFFE0000000, %32 ]
  store double %.sink11, ptr %0, align 8
  %35 = getelementptr inbounds nuw i8, ptr %0, i64 24
  store double %.sink, ptr %35, align 8
  ret void
}